; ModuleID = 'source-C-CXX/27/1253.c'
source_filename = "source-C-CXX/27/1253.c"
target datalayout = "e-m:e-p270:32:32-p271:32:32-p272:64:64-i64:64-f80:128-n8:16:32:64-S128"
target triple = "x86_64-pc-linux-gnu"

@.str = private unnamed_addr constant [3 x i8] c"%s\00", align 1
@.str.1 = private unnamed_addr constant [4 x i8] c"%d,\00", align 1
@.str.2 = private unnamed_addr constant [3 x i8] c"%d\00", align 1

; Function Attrs: nofree nounwind sspstrong uwtable
define dso_local i32 @main() local_unnamed_addr #0 {
  %1 = alloca [300 x [300 x i8]], align 16
  %2 = getelementptr inbounds [300 x [300 x i8]], [300 x [300 x i8]]* %1, i64 0, i64 0, i64 0
  call void @llvm.lifetime.start.p0i8(i64 90000, i8* nonnull %2) #4
  br label %3

3:                                                ; preds = %0, %11
  %4 = phi i64 [ 0, %0 ], [ %12, %11 ]
  %5 = getelementptr inbounds [300 x [300 x i8]], [300 x [300 x i8]]* %1, i64 0, i64 %4, i64 0
  %6 = call i32 (i8*, ...) @__isoc99_scanf(i8* getelementptr inbounds ([3 x i8], [3 x i8]* @.str, i64 0, i64 0), i8* nonnull %5)
  %7 = add nsw i64 %4, -1
  %8 = getelementptr inbounds [300 x [300 x i8]], [300 x [300 x i8]]* %1, i64 0, i64 %7, i64 0
  %9 = load i8, i8* %8, align 4, !tbaa !5
  %10 = icmp eq i8 %9, 0
  br i1 %10, label %14, label %11

11:                                               ; preds = %3
  %12 = add nuw nsw i64 %4, 1
  %13 = icmp eq i64 %12, 300
  br i1 %13, label %18, label %3, !llvm.loop !8

14:                                               ; preds = %3
  %15 = trunc i64 %4 to i32
  %16 = add nsw i32 %15, -2
  %17 = icmp sgt i32 %15, 2
  br i1 %17, label %18, label %28

18:                                               ; preds = %11, %14
  %19 = phi i32 [ %16, %14 ], [ 298, %11 ]
  %20 = zext i32 %19 to i64
  br label %21

21:                                               ; preds = %18, %21
  %22 = phi i64 [ 0, %18 ], [ %26, %21 ]
  %23 = getelementptr inbounds [300 x [300 x i8]], [300 x [300 x i8]]* %1, i64 0, i64 %22, i64 0
  %24 = call i64 @strlen(i8* noundef nonnull %23) #5
  %25 = call i32 (i8*, ...) @printf(i8* nonnull dereferenceable(1) getelementptr inbounds ([4 x i8], [4 x i8]* @.str.1, i64 0, i64 0), i64 %24)
  %26 = add nuw nsw i64 %22, 1
  %27 = icmp eq i64 %26, %20
  br i1 %27, label %28, label %21, !llvm.loop !10

28:                                               ; preds = %21, %14
  %29 = phi i32 [ %16, %14 ], [ %19, %21 ]
  %30 = sext i32 %29 to i64
  %31 = getelementptr inbounds [300 x [300 x i8]], [300 x [300 x i8]]* %1, i64 0, i64 %30, i64 0
  %32 = call i64 @strlen(i8* noundef nonnull %31) #5
  %33 = call i32 (i8*, ...) @printf(i8* nonnull dereferenceable(1) getelementptr inbounds ([3 x i8], [3 x i8]* @.str.2, i64 0, i64 0), i64 %32)
  call void @llvm.lifetime.end.p0i8(i64 90000, i8* nonnull %2) #4
  ret i32 0
}

; Function Attrs: argmemonly mustprogress nofree nosync nounwind willreturn
declare void @llvm.lifetime.start.p0i8(i64 immarg, i8* nocapture) #1

; Function Attrs: nofree nounwind
declare noundef i32 @__isoc99_scanf(i8* nocapture noundef readonly, ...) local_unnamed_addr #2

; Function Attrs: nofree nounwind
declare noundef i32 @printf(i8* nocapture noundef readonly, ...) local_unnamed_addr #2

; Function Attrs: argmemonly mustprogress nofree nounwind readonly willreturn
declare i64 @strlen(i8* nocapture) local_unnamed_addr #3

; Function Attrs: argmemonly mustprogress nofree nosync nounwind willreturn
declare void @llvm.lifetime.end.p0i8(i64 immarg, i8* nocapture) #1


!llvm.module.flags = !{!0, !1, !2, !3}
!llvm.ident = !{!4}

!0 = !{i32 1, !"wchar_size", i32 4}
!1 = !{i32 7, !"PIC Level", i32 2}
!2 = !{i32 7, !"PIE Level", i32 2}
!3 = !{i32 7, !"uwtable", i32 1}
!4 = !{!"clang version 13.0.0"}
!5 = !{!6, !6, i64 0}
!6 = !{!"omnipotent char", !7, i64 0}
!7 = !{!"Simple C/C++ TBAA"}
!8 = distinct !{!8, !9}
!9 = !{!"llvm.loop.mustprogress"}
!10 = distinct !{!10, !9}
